; Function Attrs: mustprogress nofree norecurse nosync nounwind willreturn memory(read, inaccessiblemem: none) uwtable
define noundef zeroext i1 @_ZNK5faiss14ParameterSpace14combination_geEmm(ptr nocapture noundef nonnull readonly align 8 dereferenceable(64) %0, i64 noundef %1, i64 noundef %2) local_unnamed_addr #18 align 2 {
  %4 = getelementptr inbounds i8, ptr %0, i64 8
  %5 = getelementptr inbounds i8, ptr %0, i64 16
  %6 = load ptr, ptr %5, align 8
  %7 = load ptr, ptr %4, align 8
  %8 = ptrtoint ptr %6 to i64
  %9 = ptrtoint ptr %7 to i64
  %10 = sub i64 %8, %9
  %11 = sdiv exact i64 %10, 56
  %12 = icmp eq ptr %6, %7
  br i1 %12, label %._crit_edge, label %.lr.ph.preheader

.lr.ph.preheader:                                 ; preds = %3
  %umax = tail call i64 @llvm.umax.i64(i64 %11, i64 1)
  %13 = getelementptr inbounds i8, ptr %7, i64 32
  %14 = getelementptr inbounds i8, ptr %7, i64 40
  %15 = load ptr, ptr %14, align 8
  %16 = load ptr, ptr %13, align 8
  %17 = ptrtoint ptr %15 to i64
  %18 = ptrtoint ptr %16 to i64
  %19 = sub i64 %17, %18
  %sext23 = shl i64 %19, 29
  %20 = ashr exact i64 %sext23, 32
  %21 = urem i64 %1, %20
  %22 = urem i64 %2, %20
  %.not24 = icmp ult i64 %21, %22
  br i1 %.not24, label %._crit_edge, label %.lr.ph28

.lr.ph:                                           ; preds = %.lr.ph28
  %23 = udiv i64 %.0151927, %35
  %24 = udiv i64 %.0142026, %35
  %25 = getelementptr inbounds %"struct.faiss::ParameterRange", ptr %7, i64 %indvars.iv.next, i32 1
  %26 = getelementptr inbounds i8, ptr %25, i64 8
  %27 = load ptr, ptr %26, align 8
  %28 = load ptr, ptr %25, align 8
  %29 = ptrtoint ptr %27 to i64
  %30 = ptrtoint ptr %28 to i64
  %31 = sub i64 %29, %30
  %sext = shl i64 %31, 29
  %32 = ashr exact i64 %sext, 32
  %33 = urem i64 %24, %32
  %34 = urem i64 %23, %32
  %.not = icmp ult i64 %33, %34
  br i1 %.not, label %._crit_edge.loopexit, label %.lr.ph28, !llvm.loop !42

.lr.ph28:                                         ; preds = %.lr.ph.preheader, %.lr.ph
  %35 = phi i64 [ %32, %.lr.ph ], [ %20, %.lr.ph.preheader ]
  %.0151927 = phi i64 [ %23, %.lr.ph ], [ %2, %.lr.ph.preheader ]
  %.0142026 = phi i64 [ %24, %.lr.ph ], [ %1, %.lr.ph.preheader ]
  %indvars.iv25 = phi i64 [ %indvars.iv.next, %.lr.ph ], [ 0, %.lr.ph.preheader ]
  %indvars.iv.next = add nuw i64 %indvars.iv25, 1
  %exitcond = icmp eq i64 %indvars.iv.next, %umax
  br i1 %exitcond, label %._crit_edge.loopexit, label %.lr.ph, !llvm.loop !42

._crit_edge.loopexit:                             ; preds = %.lr.ph, %.lr.ph28
  %36 = icmp ule i64 %11, %indvars.iv.next
  br label %._crit_edge

._crit_edge:                                      ; preds = %._crit_edge.loopexit, %.lr.ph.preheader, %3
  %.lcssa = phi i1 [ true, %3 ], [ false, %.lr.ph.preheader ], [ %36, %._crit_edge.loopexit ]
  ret i1 %.lcssa
}